target datalayout = "e-m:e-p270:32:32-p271:32:32-p272:64:64-i64:64-i128:128-f80:128-n8:16:32:64-S128"
target triple = "x86_64-pc-linux-gnu"

%struct._zend_extension = type { ptr, ptr, ptr, ptr, ptr, ptr, ptr, ptr, ptr, ptr, ptr, ptr, ptr, ptr, ptr, ptr, ptr, ptr, ptr, ptr, ptr, ptr, ptr, ptr, ptr, i32 }

; Function Attrs: nounwind uwtable
define internal i32 @zend_extension_startup(ptr noundef %0) #0 {
  %2 = alloca i32, align 4
  %3 = alloca ptr, align 8
  store ptr %0, ptr %3, align 8, !tbaa !14
  %4 = load ptr, ptr %3, align 8, !tbaa !14
  %5 = getelementptr inbounds nuw %struct._zend_extension, ptr %4, i32 0, i32 5
  %6 = load ptr, ptr %5, align 8, !tbaa !41
  %7 = icmp ne ptr %6, null
  br i1 %7, label %8, label %18

8:                                                ; preds = %1
  %9 = load ptr, ptr %3, align 8, !tbaa !14
  %10 = getelementptr inbounds nuw %struct._zend_extension, ptr %9, i32 0, i32 5
  %11 = load ptr, ptr %10, align 8, !tbaa !41
  %12 = load ptr, ptr %3, align 8, !tbaa !14
  %13 = call i32 %11(ptr noundef %12)
  %14 = icmp ne i32 %13, 0
  br i1 %14, label %15, label %16

15:                                               ; preds = %8
  store i32 1, ptr %2, align 4
  br label %19

16:                                               ; preds = %8
  %17 = load ptr, ptr %3, align 8, !tbaa !14
  call void @zend_append_version_info(ptr noundef %17)
  br label %18

18:                                               ; preds = %16, %1
  store i32 0, ptr %2, align 4
  br label %19

19:                                               ; preds = %18, %15
  %20 = load i32, ptr %2, align 4
  ret i32 %20
}