; Function Attrs: nounwind uwtable
define internal range(i32 0, 2) i32 @zend_extension_startup(ptr noundef %0) #0 {
  %2 = getelementptr inbounds nuw i8, ptr %0, i64 40
  %3 = load ptr, ptr %2, align 8, !tbaa !32
  %.not = icmp eq ptr %3, null
  br i1 %.not, label %7, label %4

4:                                                ; preds = %1
  %5 = tail call i32 %3(ptr noundef nonnull %0) #14
  %.not5 = icmp eq i32 %5, 0
  br i1 %.not5, label %6, label %7

6:                                                ; preds = %4
  tail call void @zend_append_version_info(ptr noundef nonnull %0) #14
  br label %7

7:                                                ; preds = %1, %6, %4
  %.0 = phi i32 [ 1, %4 ], [ 0, %6 ], [ 0, %1 ]
  ret i32 %.0
}